Certificate:
    Data:
        Version: 3 (0x2)
        Serial Number:
            60:68:58:0d:a0:54:86:35:af:a1:29:99:e5:41:59:11
        Signature Algorithm: sha256WithRSAEncryption
        Issuer: CN=openvpn-ca
        Validity
            Not Before: Jan  3 14:57:37 2026 GMT
            Not After : May 21 14:57:37 2053 GMT
        Subject: CN=server
        Subject Public Key Info:
            Public Key Algorithm: rsaEncryption
                Public-Key: (2048 bit)
                Modulus:
                    00:97:39:90:20:99:7c:58:a0:b7:89:13:44:97:62:
                    0b:98:1a:b8:6d:e8:6c:41:06:49:0b:e0:93:7d:8c:
                    c5:d8:b0:73:0d:7b:7c:5a:2b:a7:c6:5d:50:2c:20:
                    85:3d:a8:52:e8:7f:26:a6:b2:e5:91:47:0d:b4:aa:
                    f5:11:21:a2:df:6a:c3:78:36:3b:3d:8d:94:a5:e2:
                    a0:ce:1a:47:9b:28:b7:07:11:d5:a0:2d:09:1b:13:
                    d9:e2:33:37:fa:62:8c:98:72:99:b0:8f:34:80:d9:
                    75:e5:d4:11:19:64:a9:4f:5d:21:d6:52:47:d1:23:
                    18:20:e0:64:a1:e9:21:c6:aa:ff:b5:7f:3d:96:d8:
                    4a:99:d6:68:b3:69:12:b5:67:f2:6a:be:87:36:6d:
                    c8:fc:3b:8c:f0:54:8f:10:3c:78:ef:b9:ee:3a:70:
                    1f:db:87:f0:ce:bf:e4:2a:d3:1a:7b:3f:11:70:f0:
                    c2:1c:67:13:16:5d:7a:47:15:61:8b:38:64:8b:ee:
                    10:07:f9:3b:de:0a:68:d6:d4:fe:27:de:57:67:1a:
                    ca:3c:9a:89:8b:cd:da:74:f7:cc:f5:f7:d7:4f:e9:
                    13:2b:8c:8f:68:53:39:b4:17:8f:1e:0d:7d:d2:7a:
                    f7:eb:4b:cc:0e:10:11:a4:b2:e2:f6:1a:ce:d0:19:
                    92:49
                Exponent: 65537 (0x10001)
        X509v3 extensions:
            X509v3 Basic Constraints: 
                CA:FALSE
            X509v3 Subject Key Identifier: 
                DA:EE:10:C6:E3:3C:61:18:56:32:DA:74:4F:42:86:D5:5B:6A:45:D2
            X509v3 Authority Key Identifier: 
                keyid:F0:96:3B:71:B4:DD:31:4B:49:D7:41:88:18:B8:98:E8:44:24:27:7B
                DirName:/CN=openvpn-ca
                serial:74:22:D6:B3:F8:8B:CA:2F:20:78:38:2D:63:DF:87:2F:6A:F1:7B:AA
            X509v3 Extended Key Usage: 
                TLS Web Server Authentication
            X509v3 Key Usage: 
                Digital Signature, Key Encipherment
            X509v3 Subject Alternative Name: 
                DNS:server
    Signature Algorithm: sha256WithRSAEncryption
    Signature Value:
        5e:b6:f4:6a:9b:c2:51:b8:5c:94:33:36:1a:f8:5e:48:f1:10:
        35:18:be:c1:3d:5b:7f:c0:12:93:bf:e4:1c:1d:fe:5a:e9:19:
        ca:72:24:69:9a:59:c1:a0:a1:9f:ec:db:1a:1d:27:38:c2:10:
        f4:d5:3e:92:0f:11:19:9e:43:f5:f3:54:75:5a:9e:70:fc:ff:
        c8:a5:08:bf:e1:a5:0a:99:22:f2:8c:ce:7e:ce:06:ed:04:57:
        c3:b5:24:df:89:35:65:a6:02:2f:b2:cd:39:65:3e:97:55:a2:
        82:04:9d:c6:2e:c8:df:80:62:28:e1:24:eb:b4:8e:81:08:14:
        c5:f0:e2:b0:3e:50:a1:ec:0c:06:70:ef:2a:59:57:89:f8:26:
        47:c5:60:ea:7c:0d:eb:b4:8b:7e:49:85:f5:84:2d:cc:83:e2:
        e1:4f:7b:0d:ae:82:5e:a8:85:57:b4:aa:5b:62:6e:54:29:7f:
        91:b1:cf:ac:58:27:e5:1d:17:d0:e8:f4:bd:4b:af:31:56:12:
        f0:bc:26:59:ec:68:11:80:db:64:ba:5b:35:63:f2:a4:7a:39:
        53:a1:e8:a8:b8:c8:ca:1e:04:ca:52:0c:0c:d9:bb:fe:62:2e:
        c4:f2:28:80:4f:9b:2e:e4:f6:be:94:c6:e3:86:8a:7b:9c:65:
        a1:91:5a:52
-----BEGIN CERTIFICATE-----
MIIDZzCCAk+gAwIBAgIQYGhYDaBUhjWvoSmZ5UFZETANBgkqhkiG9w0BAQsFADAV
MRMwEQYDVQQDDApvcGVudnBuLWNhMCAXDTI2MDEwMzE0NTczN1oYDzIwNTMwNTIx
MTQ1NzM3WjARMQ8wDQYDVQQDDAZzZXJ2ZXIwggEiMA0GCSqGSIb3DQEBAQUAA4IB
DwAwggEKAoIBAQCXOZAgmXxYoLeJE0SXYguYGrht6GxBBkkL4JN9jMXYsHMNe3xa
K6fGXVAsIIU9qFLofyamsuWRRw20qvURIaLfasN4Njs9jZSl4qDOGkebKLcHEdWg
LQkbE9niMzf6YoyYcpmwjzSA2XXl1BEZZKlPXSHWUkfRIxgg4GSh6SHGqv+1fz2W
2EqZ1mizaRK1Z/Jqvoc2bcj8O4zwVI8QPHjvue46cB/bh/DOv+Qq0xp7PxFw8MIc
ZxMWXXpHFWGLOGSL7hAH+TveCmjW1P4n3ldnGso8momLzdp098z199dP6RMrjI9o
Uzm0F48eDX3SevfrS8wOEBGksuL2Gs7QGZJJAgMBAAGjgbQwgbEwCQYDVR0TBAIw
ADAdBgNVHQ4EFgQU2u4QxuM8YRhWMtp0T0KG1VtqRdIwUAYDVR0jBEkwR4AU8JY7
cbTdMUtJ10GIGLiY6EQkJ3uhGaQXMBUxEzARBgNVBAMMCm9wZW52cG4tY2GCFHQi
1rP4i8ovIHg4LWPfhy9q8XuqMBMGA1UdJQQMMAoGCCsGAQUFBwMBMAsGA1UdDwQE
AwIFoDARBgNVHREECjAIggZzZXJ2ZXIwDQYJKoZIhvcNAQELBQADggEBAF629Gqb
wlG4XJQzNhr4XkjxEDUYvsE9W3/AEpO/5Bwd/lrpGcpyJGmaWcGgoZ/s2xodJzjC
EPTVPpIPERmeQ/XzVHVannD8/8ilCL/hpQqZIvKMzn7OBu0EV8O1JN+JNWWmAi+y
zTllPpdVooIEncYuyN+AYijhJOu0joEIFMXw4rA+UKHsDAZw7ypZV4n4JkfFYOp8
Deu0i35JhfWELcyD4uFPew2ugl6ohVe0qltiblQpf5Gxz6xYJ+UdF9Do9L1LrzFW
EvC8JlnsaBGA22S6WzVj8qR6OVOh6Ki4yMoeBMpSDAzZu/5iLsTyKIBPmy7k9r6U
xuOGinucZaGRWlI=
-----END CERTIFICATE-----
